target datalayout = "e-m:e-p270:32:32-p271:32:32-p272:64:64-i64:64-i128:128-f80:128-n8:16:32:64-S128"
target triple = "x86_64-pc-linux-gnu"

%struct.test_fixture = type { ptr, i32, ptr, ptr }
%struct.ossl_cmp_pkiheader_st = type { ptr, ptr, ptr, ptr, ptr, ptr, ptr, ptr, ptr, ptr, ptr, ptr }
%struct.tm = type { i32, i32, i32, i32, i32, i32, i32, i32, i32, i64, ptr }

@.str.4 = private unnamed_addr constant [28 x i8] c"test_HDR_update_messageTime\00", align 1
@.str.13 = private unnamed_addr constant [31 x i8] c"../openssl/test/cmp_hdr_test.c\00", align 1
@.str.37 = private unnamed_addr constant [46 x i8] c"ossl_cmp_hdr_update_messageTime(fixture->hdr)\00", align 1
@.str.38 = private unnamed_addr constant [51 x i8] c"ASN1_TIME_to_tm(fixture->hdr->messageTime, &hdrtm)\00", align 1
@.str.39 = private unnamed_addr constant [7 x i8] c"before\00", align 1
@.str.40 = private unnamed_addr constant [8 x i8] c"hdrtime\00", align 1
@.str.41 = private unnamed_addr constant [6 x i8] c"after\00", align 1

; Function Attrs: nounwind uwtable
define internal void @tear_down(ptr noundef %0) #0 {
  %2 = alloca ptr, align 8
  store ptr %0, ptr %2, align 8, !tbaa !4
  %3 = load ptr, ptr %2, align 8, !tbaa !4
  %4 = getelementptr inbounds nuw %struct.test_fixture, ptr %3, i32 0, i32 3
  %5 = load ptr, ptr %4, align 8, !tbaa !21
  call void @OSSL_CMP_PKIHEADER_free(ptr noundef %5)
  %6 = load ptr, ptr %2, align 8, !tbaa !4
  %7 = getelementptr inbounds nuw %struct.test_fixture, ptr %6, i32 0, i32 2
  %8 = load ptr, ptr %7, align 8, !tbaa !16
  call void @OSSL_CMP_CTX_free(ptr noundef %8)
  %9 = load ptr, ptr %2, align 8, !tbaa !4
  call void @CRYPTO_free(ptr noundef %9, ptr noundef @.str.13, i32 noundef 28)
  ret void
}

; Function Attrs: nounwind uwtable
define internal i32 @execute_HDR_update_messageTime_test(ptr noundef %0) #0 {
  %2 = alloca i32, align 4
  %3 = alloca ptr, align 8
  %4 = alloca %struct.tm, align 8
  %5 = alloca %struct.tm, align 8
  %6 = alloca i64, align 8
  %7 = alloca i64, align 8
  %8 = alloca i64, align 8
  %9 = alloca i64, align 8
  %10 = alloca i32, align 4
  store ptr %0, ptr %3, align 8, !tbaa !4
  call void @llvm.lifetime.start.p0(i64 56, ptr %4) #7
  call void @llvm.lifetime.start.p0(i64 56, ptr %5) #7
  call void @llvm.lifetime.start.p0(i64 8, ptr %6) #7
  call void @llvm.lifetime.start.p0(i64 8, ptr %7) #7
  call void @llvm.lifetime.start.p0(i64 8, ptr %8) #7
  call void @llvm.lifetime.start.p0(i64 8, ptr %9) #7
  %11 = call i64 @time(ptr noundef null) #7
  store i64 %11, ptr %9, align 8, !tbaa !48
  %12 = call ptr @gmtime(ptr noundef %9) #7
  call void @llvm.memcpy.p0.p0.i64(ptr align 8 %5, ptr align 8 %12, i64 56, i1 false), !tbaa.struct !49
  %13 = call i64 @mktime(ptr noundef %5) #7
  store i64 %13, ptr %7, align 8, !tbaa !48
  %14 = load ptr, ptr %3, align 8, !tbaa !4
  %15 = getelementptr inbounds nuw %struct.test_fixture, ptr %14, i32 0, i32 3
  %16 = load ptr, ptr %15, align 8, !tbaa !21
  %17 = call i32 @ossl_cmp_hdr_update_messageTime(ptr noundef %16)
  %18 = icmp ne i32 %17, 0
  %19 = zext i1 %18 to i32
  %20 = call i32 @test_true(ptr noundef @.str.13, i32 noundef 190, ptr noundef @.str.37, i32 noundef %19)
  %21 = icmp ne i32 %20, 0
  br i1 %21, label %23, label %22

22:                                               ; preds = %1
  store i32 0, ptr %2, align 4
  store i32 1, ptr %10, align 4
  br label %49

23:                                               ; preds = %1
  %24 = load ptr, ptr %3, align 8, !tbaa !4
  %25 = getelementptr inbounds nuw %struct.test_fixture, ptr %24, i32 0, i32 3
  %26 = load ptr, ptr %25, align 8, !tbaa !21
  %27 = getelementptr inbounds nuw %struct.ossl_cmp_pkiheader_st, ptr %26, i32 0, i32 3
  %28 = load ptr, ptr %27, align 8, !tbaa !50
  %29 = call i32 @ASN1_TIME_to_tm(ptr noundef %28, ptr noundef %4)
  %30 = icmp ne i32 %29, 0
  %31 = zext i1 %30 to i32
  %32 = call i32 @test_true(ptr noundef @.str.13, i32 noundef 192, ptr noundef @.str.38, i32 noundef %31)
  %33 = icmp ne i32 %32, 0
  br i1 %33, label %35, label %34

34:                                               ; preds = %23
  store i32 0, ptr %2, align 4
  store i32 1, ptr %10, align 4
  br label %49

35:                                               ; preds = %23
  %36 = call i64 @mktime(ptr noundef %4) #7
  store i64 %36, ptr %6, align 8, !tbaa !48
  %37 = load i64, ptr %7, align 8, !tbaa !48
  %38 = load i64, ptr %6, align 8, !tbaa !48
  %39 = call i32 @test_time_t_le(ptr noundef @.str.13, i32 noundef 197, ptr noundef @.str.39, ptr noundef @.str.40, i64 noundef %37, i64 noundef %38)
  %40 = icmp ne i32 %39, 0
  br i1 %40, label %42, label %41

41:                                               ; preds = %35
  store i32 0, ptr %2, align 4
  store i32 1, ptr %10, align 4
  br label %49

42:                                               ; preds = %35
  %43 = call i64 @time(ptr noundef null) #7
  store i64 %43, ptr %9, align 8, !tbaa !48
  %44 = call ptr @gmtime(ptr noundef %9) #7
  call void @llvm.memcpy.p0.p0.i64(ptr align 8 %5, ptr align 8 %44, i64 56, i1 false), !tbaa.struct !49
  %45 = call i64 @mktime(ptr noundef %5) #7
  store i64 %45, ptr %8, align 8, !tbaa !48
  %46 = load i64, ptr %6, align 8, !tbaa !48
  %47 = load i64, ptr %8, align 8, !tbaa !48
  %48 = call i32 @test_time_t_le(ptr noundef @.str.13, i32 noundef 203, ptr noundef @.str.40, ptr noundef @.str.41, i64 noundef %46, i64 noundef %47)
  store i32 %48, ptr %2, align 4
  store i32 1, ptr %10, align 4
  br label %49

49:                                               ; preds = %42, %41, %34, %22
  call void @llvm.lifetime.end.p0(i64 8, ptr %9) #7
  call void @llvm.lifetime.end.p0(i64 8, ptr %8) #7
  call void @llvm.lifetime.end.p0(i64 8, ptr %7) #7
  call void @llvm.lifetime.end.p0(i64 8, ptr %6) #7
  call void @llvm.lifetime.end.p0(i64 56, ptr %5) #7
  call void @llvm.lifetime.end.p0(i64 56, ptr %4) #7
  %50 = load i32, ptr %2, align 4
  ret i32 %50
}

; Function Attrs: nounwind uwtable
define internal i32 @test_HDR_update_messageTime() #0 {
  %1 = alloca i32, align 4
  %2 = alloca ptr, align 8
  %3 = alloca i32, align 4
  %4 = alloca i32, align 4
  call void @llvm.lifetime.start.p0(i64 8, ptr %2) #7
  %5 = call ptr @set_up(ptr noundef @.str.4)
  store ptr %5, ptr %2, align 8, !tbaa !4
  call void @llvm.lifetime.start.p0(i64 4, ptr %3) #7
  store i32 0, ptr %3, align 4, !tbaa !9
  %6 = load ptr, ptr %2, align 8, !tbaa !4
  %7 = icmp eq ptr %6, null
  br i1 %7, label %8, label %9

8:                                                ; preds = %0
  store i32 0, ptr %1, align 4
  store i32 1, ptr %4, align 4
  br label %20

9:                                                ; preds = %0
  %10 = load ptr, ptr %2, align 8, !tbaa !4
  %11 = getelementptr inbounds nuw %struct.test_fixture, ptr %10, i32 0, i32 1
  store i32 1, ptr %11, align 8, !tbaa !11
  %12 = load ptr, ptr %2, align 8, !tbaa !4
  %13 = icmp ne ptr %12, null
  br i1 %13, label %14, label %18

14:                                               ; preds = %9
  %15 = load ptr, ptr %2, align 8, !tbaa !4
  %16 = call i32 @execute_HDR_update_messageTime_test(ptr noundef %15)
  store i32 %16, ptr %3, align 4, !tbaa !9
  %17 = load ptr, ptr %2, align 8, !tbaa !4
  call void @tear_down(ptr noundef %17)
  br label %18

18:                                               ; preds = %14, %9
  %19 = load i32, ptr %3, align 4, !tbaa !9
  store i32 %19, ptr %1, align 4
  store i32 1, ptr %4, align 4
  br label %20

20:                                               ; preds = %18, %8
  call void @llvm.lifetime.end.p0(i64 4, ptr %3) #7
  call void @llvm.lifetime.end.p0(i64 8, ptr %2) #7
  %21 = load i32, ptr %1, align 4
  ret i32 %21
}