; Function Attrs: nounwind uwtable
define internal i32 @test_HDR_update_messageTime() #1 {
  %1 = alloca %struct.tm, align 8
  %2 = alloca %struct.tm, align 8
  %3 = alloca i64, align 8
  %4 = tail call fastcc ptr @set_up(ptr noundef nonnull @.str.4)
  %5 = icmp eq ptr %4, null
  br i1 %5, label %36, label %6

6:                                                ; preds = %0
  %7 = getelementptr inbounds nuw i8, ptr %4, i64 8
  store i32 1, ptr %7, align 8, !tbaa !4
  call void @llvm.lifetime.start.p0(i64 56, ptr nonnull %1) #8
  call void @llvm.lifetime.start.p0(i64 56, ptr nonnull %2) #8
  call void @llvm.lifetime.start.p0(i64 8, ptr nonnull %3) #8
  %8 = tail call i64 @time(ptr noundef null) #8
  store i64 %8, ptr %3, align 8, !tbaa !41
  %9 = call ptr @gmtime(ptr noundef nonnull %3) #8
  call void @llvm.memcpy.p0.p0.i64(ptr noundef nonnull align 8 dereferenceable(56) %2, ptr noundef nonnull align 8 dereferenceable(56) %9, i64 56, i1 false), !tbaa.struct !42
  %10 = call i64 @mktime(ptr noundef nonnull %2) #8
  %11 = getelementptr inbounds nuw i8, ptr %4, i64 24
  %12 = load ptr, ptr %11, align 8, !tbaa !13
  %13 = call i32 @ossl_cmp_hdr_update_messageTime(ptr noundef %12) #8
  %14 = icmp ne i32 %13, 0
  %15 = zext i1 %14 to i32
  %16 = call i32 @test_true(ptr noundef nonnull @.str.13, i32 noundef 190, ptr noundef nonnull @.str.37, i32 noundef %15) #8
  %.not.i = icmp eq i32 %16, 0
  br i1 %.not.i, label %execute_HDR_update_messageTime_test.exit, label %17

17:                                               ; preds = %6
  %18 = load ptr, ptr %11, align 8, !tbaa !13
  %19 = getelementptr inbounds nuw i8, ptr %18, i64 24
  %20 = load ptr, ptr %19, align 8, !tbaa !45
  %21 = call i32 @ASN1_TIME_to_tm(ptr noundef %20, ptr noundef nonnull %1) #8
  %22 = icmp ne i32 %21, 0
  %23 = zext i1 %22 to i32
  %24 = call i32 @test_true(ptr noundef nonnull @.str.13, i32 noundef 192, ptr noundef nonnull @.str.38, i32 noundef %23) #8
  %.not6.i = icmp eq i32 %24, 0
  br i1 %.not6.i, label %execute_HDR_update_messageTime_test.exit, label %25

25:                                               ; preds = %17
  %26 = call i64 @mktime(ptr noundef nonnull %1) #8
  %27 = call i32 @test_time_t_le(ptr noundef nonnull @.str.13, i32 noundef 197, ptr noundef nonnull @.str.39, ptr noundef nonnull @.str.40, i64 noundef %10, i64 noundef %26) #8
  %.not7.i = icmp eq i32 %27, 0
  br i1 %.not7.i, label %execute_HDR_update_messageTime_test.exit, label %28

28:                                               ; preds = %25
  %29 = call i64 @time(ptr noundef null) #8
  store i64 %29, ptr %3, align 8, !tbaa !41
  %30 = call ptr @gmtime(ptr noundef nonnull %3) #8
  call void @llvm.memcpy.p0.p0.i64(ptr noundef nonnull align 8 dereferenceable(56) %2, ptr noundef nonnull align 8 dereferenceable(56) %30, i64 56, i1 false), !tbaa.struct !42
  %31 = call i64 @mktime(ptr noundef nonnull %2) #8
  %32 = call i32 @test_time_t_le(ptr noundef nonnull @.str.13, i32 noundef 203, ptr noundef nonnull @.str.40, ptr noundef nonnull @.str.41, i64 noundef %26, i64 noundef %31) #8
  br label %execute_HDR_update_messageTime_test.exit

execute_HDR_update_messageTime_test.exit:         ; preds = %6, %17, %25, %28
  %.0.i = phi i32 [ %32, %28 ], [ 0, %6 ], [ 0, %17 ], [ 0, %25 ]
  call void @llvm.lifetime.end.p0(i64 8, ptr nonnull %3) #8
  call void @llvm.lifetime.end.p0(i64 56, ptr nonnull %2) #8
  call void @llvm.lifetime.end.p0(i64 56, ptr nonnull %1) #8
  %33 = load ptr, ptr %11, align 8, !tbaa !13
  call void @OSSL_CMP_PKIHEADER_free(ptr noundef %33) #8
  %34 = getelementptr inbounds nuw i8, ptr %4, i64 16
  %35 = load ptr, ptr %34, align 8, !tbaa !14
  call void @OSSL_CMP_CTX_free(ptr noundef %35) #8
  call void @CRYPTO_free(ptr noundef nonnull %4, ptr noundef nonnull @.str.13, i32 noundef 28) #8
  br label %36

36:                                               ; preds = %0, %execute_HDR_update_messageTime_test.exit
  %.06 = phi i32 [ %.0.i, %execute_HDR_update_messageTime_test.exit ], [ 0, %0 ]
  ret i32 %.06
}